target datalayout = "e-m:e-p270:32:32-p271:32:32-p272:64:64-i64:64-i128:128-f80:128-n8:16:32:64-S128"
target triple = "x86_64-pc-linux-gnu"

%struct.AVCodecContext = type { ptr, i32, i32, ptr, i32, i32, ptr, ptr, ptr, i64, i32, i32, ptr, i32, %struct.AVRational, %struct.AVRational, %struct.AVRational, i32, i32, i32, i32, i32, %struct.AVRational, i32, i32, i32, i32, i32, i32, i32, i32, i32, i32, i32, ptr, ptr, i32, float, float, float, float, float, float, float, float, float, i32, i32, i32, i32, i32, i32, i32, i32, i32, i32, i32, i32, ptr, ptr, ptr, i32, i32, i32, i32, i32, i32, i32, i32, i32, i32, %struct.AVChannelLayout, i32, i32, i32, i32, i32, i32, i32, i32, ptr, i32, i32, i32, float, float, i32, i32, i32, i32, i32, ptr, i64, i64, float, float, i32, i32, ptr, ptr, i32, i32, i32, i32, i32, ptr, ptr, ptr, ptr, i32, i32, [8 x i64], i32, i32, i32, i32, i32, i32, i32, ptr, ptr, i32, i32, i32, i32, i32, i32, i32, i32, i32, i32, ptr, ptr, i32, i32, ptr, ptr, ptr, ptr, i32, i32, i64, i32, i32, i64, ptr, i64, ptr, i32, ptr, i32 }
%struct.AVRational = type { i32, i32 }
%struct.AVChannelLayout = type { i32, i32, %union.anon.0, ptr }
%union.anon.0 = type { i64 }

; Function Attrs: cold nounwind optsize uwtable
define internal i32 @bmp_encode_init(ptr noundef %0) #0 {
  %2 = alloca ptr, align 8
  store ptr %0, ptr %2, align 8, !tbaa !4
  %3 = load ptr, ptr %2, align 8, !tbaa !4
  %4 = getelementptr inbounds nuw %struct.AVCodecContext, ptr %3, i32 0, i32 23
  %5 = load i32, ptr %4, align 8, !tbaa !9
  switch i32 %5, label %21 [
    i32 28, label %6
    i32 3, label %9
    i32 39, label %12
    i32 37, label %12
    i32 52, label %12
    i32 20, label %15
    i32 17, label %15
    i32 22, label %15
    i32 19, label %15
    i32 8, label %15
    i32 11, label %15
    i32 10, label %18
  ]

6:                                                ; preds = %1
  %7 = load ptr, ptr %2, align 8, !tbaa !4
  %8 = getelementptr inbounds nuw %struct.AVCodecContext, ptr %7, i32 0, i32 114
  store i32 32, ptr %8, align 8, !tbaa !29
  br label %21

9:                                                ; preds = %1
  %10 = load ptr, ptr %2, align 8, !tbaa !4
  %11 = getelementptr inbounds nuw %struct.AVCodecContext, ptr %10, i32 0, i32 114
  store i32 24, ptr %11, align 8, !tbaa !29
  br label %21

12:                                               ; preds = %1, %1, %1
  %13 = load ptr, ptr %2, align 8, !tbaa !4
  %14 = getelementptr inbounds nuw %struct.AVCodecContext, ptr %13, i32 0, i32 114
  store i32 16, ptr %14, align 8, !tbaa !29
  br label %21

15:                                               ; preds = %1, %1, %1, %1, %1, %1
  %16 = load ptr, ptr %2, align 8, !tbaa !4
  %17 = getelementptr inbounds nuw %struct.AVCodecContext, ptr %16, i32 0, i32 114
  store i32 8, ptr %17, align 8, !tbaa !29
  br label %21

18:                                               ; preds = %1
  %19 = load ptr, ptr %2, align 8, !tbaa !4
  %20 = getelementptr inbounds nuw %struct.AVCodecContext, ptr %19, i32 0, i32 114
  store i32 1, ptr %20, align 8, !tbaa !29
  br label %21

21:                                               ; preds = %1, %18, %15, %12, %9, %6
  ret i32 0
}