; Function Attrs: cold mustprogress nofree norecurse nosync nounwind optsize willreturn memory(argmem: readwrite) uwtable
define internal noundef i32 @bmp_encode_init(ptr noundef captures(none) %0) #0 {
  %2 = getelementptr inbounds nuw i8, ptr %0, i64 136
  %3 = load i32, ptr %2, align 8, !tbaa !4
  switch i32 %3, label %9 [
    i32 28, label %.sink.split
    i32 3, label %4
    i32 39, label %5
    i32 37, label %5
    i32 52, label %5
    i32 20, label %6
    i32 17, label %6
    i32 22, label %6
    i32 19, label %6
    i32 8, label %6
    i32 11, label %6
    i32 10, label %7
  ]

4:                                                ; preds = %1
  br label %.sink.split

5:                                                ; preds = %1, %1, %1
  br label %.sink.split

6:                                                ; preds = %1, %1, %1, %1, %1, %1
  br label %.sink.split

7:                                                ; preds = %1
  br label %.sink.split

.sink.split:                                      ; preds = %1, %4, %5, %6, %7
  %.sink = phi i32 [ 1, %7 ], [ 8, %6 ], [ 16, %5 ], [ 24, %4 ], [ 32, %1 ]
  %8 = getelementptr inbounds nuw i8, ptr %0, i64 648
  store i32 %.sink, ptr %8, align 8, !tbaa !27
  br label %9

9:                                                ; preds = %.sink.split, %1
  ret i32 0
}